target datalayout = "e-m:e-p270:32:32-p271:32:32-p272:64:64-i64:64-i128:128-f80:128-n8:16:32:64-S128"
target triple = "x86_64-pc-linux-gnu"

@H5_libinit_g = external global i8, align 1
@H5_libterm_g = external global i8, align 1
@.str = private unnamed_addr constant [97 x i8] c"generated/home/dtcxzyw/WorkSpace/Projects/compilers/llvm-opt-benchmark/bench/hdf5/hdf5/src/H5I.c\00", align 1
@H5E_FUNC_g = external global i64, align 8
@H5E_CANTINIT_g = external global i64, align 8
@.str.1 = private unnamed_addr constant [30 x i8] c"library initialization failed\00", align 1
@H5E_CANTSET_g = external global i64, align 8
@.str.2 = private unnamed_addr constant [22 x i8] c"can't set API context\00", align 1
@H5I_next_type_g = external global i32, align 4
@H5I_type_info_array_g = external global [127 x ptr], align 16
@H5E_ID_g = external global i64, align 8
@H5E_BADGROUP_g = external global i64, align 8
@.str.6 = private unnamed_addr constant [44 x i8] c"cannot call public function on library type\00", align 1
@H5E_ARGS_g = external global i64, align 8
@H5E_BADRANGE_g = external global i64, align 8
@.str.7 = private unnamed_addr constant [20 x i8] c"invalid type number\00", align 1
@__func__.H5Inmembers = private unnamed_addr constant [12 x i8] c"H5Inmembers\00", align 1
@.str.8 = private unnamed_addr constant [29 x i8] c"supplied type does not exist\00", align 1
@H5E_CANTCOUNT_g = external global i64, align 8
@.str.9 = private unnamed_addr constant [32 x i8] c"can't compute number of members\00", align 1

; Function Attrs: nounwind uwtable
define i32 @H5Inmembers(i32 noundef %0, ptr noundef %1) #0 {
  %3 = alloca i32, align 4
  %4 = alloca ptr, align 8
  %5 = alloca i32, align 4
  %6 = alloca i8, align 1
  %7 = alloca i8, align 1
  %8 = alloca i64, align 8
  store i32 %0, ptr %3, align 4
  store ptr %1, ptr %4, align 8
  store i32 0, ptr %5, align 4
  store i8 0, ptr %6, align 1
  store i8 0, ptr %7, align 1
  %9 = load i8, ptr @H5_libinit_g, align 1
  %10 = trunc i8 %9 to i1
  br i1 %10, label %15, label %11

11:                                               ; preds = %2
  %12 = load i8, ptr @H5_libterm_g, align 1
  %13 = trunc i8 %12 to i1
  %14 = xor i1 %13, true
  br label %15

15:                                               ; preds = %11, %2
  %16 = phi i1 [ false, %2 ], [ %14, %11 ]
  %17 = xor i1 %16, true
  %18 = xor i1 %17, true
  %19 = zext i1 %18 to i32
  %20 = sext i32 %19 to i64
  %21 = icmp ne i64 %20, 0
  br i1 %21, label %22, label %46

22:                                               ; preds = %15
  %23 = call i32 @H5_init_library()
  %24 = icmp slt i32 %23, 0
  %25 = xor i1 %24, true
  %26 = xor i1 %25, true
  %27 = zext i1 %26 to i32
  %28 = sext i32 %27 to i64
  %29 = icmp ne i64 %28, 0
  br i1 %29, label %30, label %45

30:                                               ; preds = %22
  br label %31

31:                                               ; preds = %30
  br label %32

32:                                               ; preds = %31
  br label %33

33:                                               ; preds = %32
  %34 = load i64, ptr @H5E_FUNC_g, align 8
  %35 = load i64, ptr @H5E_CANTINIT_g, align 8
  %36 = call i32 (ptr, ptr, i32, i64, i64, ptr, ...) @H5E_printf_stack(ptr noundef @.str, ptr noundef @__func__.H5Inmembers, i32 noundef 200, i64 noundef %34, i64 noundef %35, ptr noundef @.str.1)
  br label %37

37:                                               ; preds = %33
  store i8 1, ptr %7, align 1
  %38 = load i8, ptr %7, align 1
  %39 = trunc i8 %38 to i1
  %40 = zext i1 %39 to i8
  store i8 %40, ptr %7, align 1
  br label %41

41:                                               ; preds = %37
  br label %42

42:                                               ; preds = %41
  store i32 -1, ptr %5, align 4
  br label %163

43:                                               ; No predecessors!
  br label %44

44:                                               ; preds = %43
  br label %45

45:                                               ; preds = %44, %22
  br label %46

46:                                               ; preds = %45, %15
  %47 = call i32 @H5CX_push()
  %48 = icmp slt i32 %47, 0
  %49 = xor i1 %48, true
  %50 = xor i1 %49, true
  %51 = zext i1 %50 to i32
  %52 = sext i32 %51 to i64
  %53 = icmp ne i64 %52, 0
  br i1 %53, label %54, label %69

54:                                               ; preds = %46
  br label %55

55:                                               ; preds = %54
  br label %56

56:                                               ; preds = %55
  br label %57

57:                                               ; preds = %56
  %58 = load i64, ptr @H5E_FUNC_g, align 8
  %59 = load i64, ptr @H5E_CANTSET_g, align 8
  %60 = call i32 (ptr, ptr, i32, i64, i64, ptr, ...) @H5E_printf_stack(ptr noundef @.str, ptr noundef @__func__.H5Inmembers, i32 noundef 200, i64 noundef %58, i64 noundef %59, ptr noundef @.str.2)
  br label %61

61:                                               ; preds = %57
  store i8 1, ptr %7, align 1
  %62 = load i8, ptr %7, align 1
  %63 = trunc i8 %62 to i1
  %64 = zext i1 %63 to i8
  store i8 %64, ptr %7, align 1
  br label %65

65:                                               ; preds = %61
  br label %66

66:                                               ; preds = %65
  store i32 -1, ptr %5, align 4
  br label %163

67:                                               ; No predecessors!
  br label %68

68:                                               ; preds = %67
  br label %70

69:                                               ; preds = %46
  store i8 1, ptr %6, align 1
  br label %70

70:                                               ; preds = %69, %68
  %71 = call i32 @H5E_clear_stack()
  %72 = load i32, ptr %3, align 4
  %73 = icmp sgt i32 %72, 0
  br i1 %73, label %74, label %92

74:                                               ; preds = %70
  %75 = load i32, ptr %3, align 4
  %76 = icmp slt i32 %75, 17
  br i1 %76, label %77, label %92

77:                                               ; preds = %74
  br label %78

78:                                               ; preds = %77
  br label %79

79:                                               ; preds = %78
  br label %80

80:                                               ; preds = %79
  %81 = load i64, ptr @H5E_ID_g, align 8
  %82 = load i64, ptr @H5E_BADGROUP_g, align 8
  %83 = call i32 (ptr, ptr, i32, i64, i64, ptr, ...) @H5E_printf_stack(ptr noundef @.str, ptr noundef @__func__.H5Inmembers, i32 noundef 203, i64 noundef %81, i64 noundef %82, ptr noundef @.str.6)
  br label %84

84:                                               ; preds = %80
  store i8 1, ptr %7, align 1
  %85 = load i8, ptr %7, align 1
  %86 = trunc i8 %85 to i1
  %87 = zext i1 %86 to i8
  store i8 %87, ptr %7, align 1
  br label %88

88:                                               ; preds = %84
  br label %89

89:                                               ; preds = %88
  store i32 -1, ptr %5, align 4
  br label %163

90:                                               ; No predecessors!
  br label %91

91:                                               ; preds = %90
  br label %92

92:                                               ; preds = %91, %74, %70
  %93 = load i32, ptr %3, align 4
  %94 = icmp sle i32 %93, -1
  br i1 %94, label %99, label %95

95:                                               ; preds = %92
  %96 = load i32, ptr %3, align 4
  %97 = load i32, ptr @H5I_next_type_g, align 4
  %98 = icmp sge i32 %96, %97
  br i1 %98, label %99, label %114

99:                                               ; preds = %95, %92
  br label %100

100:                                              ; preds = %99
  br label %101

101:                                              ; preds = %100
  br label %102

102:                                              ; preds = %101
  %103 = load i64, ptr @H5E_ARGS_g, align 8
  %104 = load i64, ptr @H5E_BADRANGE_g, align 8
  %105 = call i32 (ptr, ptr, i32, i64, i64, ptr, ...) @H5E_printf_stack(ptr noundef @.str, ptr noundef @__func__.H5Inmembers, i32 noundef 210, i64 noundef %103, i64 noundef %104, ptr noundef @.str.7)
  br label %106

106:                                              ; preds = %102
  store i8 1, ptr %7, align 1
  %107 = load i8, ptr %7, align 1
  %108 = trunc i8 %107 to i1
  %109 = zext i1 %108 to i8
  store i8 %109, ptr %7, align 1
  br label %110

110:                                              ; preds = %106
  br label %111

111:                                              ; preds = %110
  store i32 -1, ptr %5, align 4
  br label %163

112:                                              ; No predecessors!
  br label %113

113:                                              ; preds = %112
  br label %114

114:                                              ; preds = %113, %95
  %115 = load i32, ptr %3, align 4
  %116 = sext i32 %115 to i64
  %117 = getelementptr inbounds [127 x ptr], ptr @H5I_type_info_array_g, i64 0, i64 %116
  %118 = load ptr, ptr %117, align 8
  %119 = icmp eq ptr null, %118
  br i1 %119, label %120, label %135

120:                                              ; preds = %114
  br label %121

121:                                              ; preds = %120
  br label %122

122:                                              ; preds = %121
  br label %123

123:                                              ; preds = %122
  %124 = load i64, ptr @H5E_ARGS_g, align 8
  %125 = load i64, ptr @H5E_BADRANGE_g, align 8
  %126 = call i32 (ptr, ptr, i32, i64, i64, ptr, ...) @H5E_printf_stack(ptr noundef @.str, ptr noundef @__func__.H5Inmembers, i32 noundef 212, i64 noundef %124, i64 noundef %125, ptr noundef @.str.8)
  br label %127

127:                                              ; preds = %123
  store i8 1, ptr %7, align 1
  %128 = load i8, ptr %7, align 1
  %129 = trunc i8 %128 to i1
  %130 = zext i1 %129 to i8
  store i8 %130, ptr %7, align 1
  br label %131

131:                                              ; preds = %127
  br label %132

132:                                              ; preds = %131
  store i32 -1, ptr %5, align 4
  br label %163

133:                                              ; No predecessors!
  br label %134

134:                                              ; preds = %133
  br label %135

135:                                              ; preds = %134, %114
  %136 = load ptr, ptr %4, align 8
  %137 = icmp ne ptr %136, null
  br i1 %137, label %138, label %162

138:                                              ; preds = %135
  %139 = load i32, ptr %3, align 4
  %140 = call i64 @H5I_nmembers(i32 noundef %139)
  store i64 %140, ptr %8, align 8
  %141 = icmp slt i64 %140, 0
  br i1 %141, label %142, label %157

142:                                              ; preds = %138
  br label %143

143:                                              ; preds = %142
  br label %144

144:                                              ; preds = %143
  br label %145

145:                                              ; preds = %144
  %146 = load i64, ptr @H5E_ID_g, align 8
  %147 = load i64, ptr @H5E_CANTCOUNT_g, align 8
  %148 = call i32 (ptr, ptr, i32, i64, i64, ptr, ...) @H5E_printf_stack(ptr noundef @.str, ptr noundef @__func__.H5Inmembers, i32 noundef 218, i64 noundef %146, i64 noundef %147, ptr noundef @.str.9)
  br label %149

149:                                              ; preds = %145
  store i8 1, ptr %7, align 1
  %150 = load i8, ptr %7, align 1
  %151 = trunc i8 %150 to i1
  %152 = zext i1 %151 to i8
  store i8 %152, ptr %7, align 1
  br label %153

153:                                              ; preds = %149
  br label %154

154:                                              ; preds = %153
  store i32 -1, ptr %5, align 4
  br label %163

155:                                              ; No predecessors!
  br label %156

156:                                              ; preds = %155
  br label %157

157:                                              ; preds = %156, %138
  br label %158

158:                                              ; preds = %157
  %159 = load i64, ptr %8, align 8
  %160 = load ptr, ptr %4, align 8
  store i64 %159, ptr %160, align 8
  br label %161

161:                                              ; preds = %158
  br label %162

162:                                              ; preds = %161, %135
  br label %163

163:                                              ; preds = %162, %154, %132, %111, %89, %66, %42
  %164 = load i8, ptr %6, align 1
  %165 = trunc i8 %164 to i1
  %166 = xor i1 %165, true
  %167 = xor i1 %166, true
  %168 = zext i1 %167 to i32
  %169 = sext i32 %168 to i64
  %170 = icmp ne i64 %169, 0
  br i1 %170, label %171, label %173

171:                                              ; preds = %163
  %172 = call i32 @H5CX_pop(i1 noundef zeroext true)
  store i8 0, ptr %6, align 1
  br label %173

173:                                              ; preds = %171, %163
  %174 = load i8, ptr %7, align 1
  %175 = trunc i8 %174 to i1
  %176 = xor i1 %175, true
  %177 = xor i1 %176, true
  %178 = zext i1 %177 to i32
  %179 = sext i32 %178 to i64
  %180 = icmp ne i64 %179, 0
  br i1 %180, label %181, label %183

181:                                              ; preds = %173
  %182 = call i32 @H5E_dump_api_stack()
  br label %183

183:                                              ; preds = %181, %173
  %184 = load i32, ptr %5, align 4
  ret i32 %184
}