; Function Attrs: nounwind uwtable
define range(i32 -1, 1) i32 @H5Inmembers(i32 noundef %0, ptr noundef writeonly %1) local_unnamed_addr #0 {
  %3 = load i8, ptr @H5_libinit_g, align 1
  %4 = trunc i8 %3 to i1
  %5 = load i8, ptr @H5_libterm_g, align 1
  %6 = trunc i8 %5 to i1
  %7 = select i1 %4, i1 true, i1 %6
  br i1 %7, label %15, label %8

8:                                                ; preds = %2
  %9 = tail call i32 @H5_init_library() #3
  %10 = icmp slt i32 %9, 0
  br i1 %10, label %11, label %15

11:                                               ; preds = %8
  %12 = load i64, ptr @H5E_FUNC_g, align 8
  %13 = load i64, ptr @H5E_CANTINIT_g, align 8
  %14 = tail call i32 (ptr, ptr, i32, i64, i64, ptr, ...) @H5E_printf_stack(ptr noundef nonnull @.str, ptr noundef nonnull @__func__.H5Inmembers, i32 noundef 200, i64 noundef %12, i64 noundef %13, ptr noundef nonnull @.str.1) #3
  br label %.thread33

15:                                               ; preds = %8, %2
  %16 = tail call i32 @H5CX_push() #3
  %17 = icmp slt i32 %16, 0
  br i1 %17, label %18, label %22

18:                                               ; preds = %15
  %19 = load i64, ptr @H5E_FUNC_g, align 8
  %20 = load i64, ptr @H5E_CANTSET_g, align 8
  %21 = tail call i32 (ptr, ptr, i32, i64, i64, ptr, ...) @H5E_printf_stack(ptr noundef nonnull @.str, ptr noundef nonnull @__func__.H5Inmembers, i32 noundef 200, i64 noundef %19, i64 noundef %20, ptr noundef nonnull @.str.2) #3
  br label %.thread33

22:                                               ; preds = %15
  %23 = tail call i32 @H5E_clear_stack() #3
  %24 = add i32 %0, -1
  %or.cond = icmp ult i32 %24, 16
  br i1 %or.cond, label %25, label %29

25:                                               ; preds = %22
  %26 = load i64, ptr @H5E_ID_g, align 8
  %27 = load i64, ptr @H5E_BADGROUP_g, align 8
  %28 = tail call i32 (ptr, ptr, i32, i64, i64, ptr, ...) @H5E_printf_stack(ptr noundef nonnull @.str, ptr noundef nonnull @__func__.H5Inmembers, i32 noundef 203, i64 noundef %26, i64 noundef %27, ptr noundef nonnull @.str.6) #3
  br label %.thread39

29:                                               ; preds = %22
  %30 = icmp sgt i32 %0, -1
  %31 = load i32, ptr @H5I_next_type_g, align 4
  %.not = icmp sgt i32 %31, %0
  %or.cond24 = select i1 %30, i1 %.not, i1 false
  br i1 %or.cond24, label %36, label %32

32:                                               ; preds = %29
  %33 = load i64, ptr @H5E_ARGS_g, align 8
  %34 = load i64, ptr @H5E_BADRANGE_g, align 8
  %35 = tail call i32 (ptr, ptr, i32, i64, i64, ptr, ...) @H5E_printf_stack(ptr noundef nonnull @.str, ptr noundef nonnull @__func__.H5Inmembers, i32 noundef 210, i64 noundef %33, i64 noundef %34, ptr noundef nonnull @.str.7) #3
  br label %.thread39

36:                                               ; preds = %29
  %37 = zext nneg i32 %0 to i64
  %38 = getelementptr inbounds [127 x ptr], ptr @H5I_type_info_array_g, i64 0, i64 %37
  %39 = load ptr, ptr %38, align 8
  %40 = icmp eq ptr %39, null
  br i1 %40, label %41, label %45

41:                                               ; preds = %36
  %42 = load i64, ptr @H5E_ARGS_g, align 8
  %43 = load i64, ptr @H5E_BADRANGE_g, align 8
  %44 = tail call i32 (ptr, ptr, i32, i64, i64, ptr, ...) @H5E_printf_stack(ptr noundef nonnull @.str, ptr noundef nonnull @__func__.H5Inmembers, i32 noundef 212, i64 noundef %42, i64 noundef %43, ptr noundef nonnull @.str.8) #3
  br label %.thread39

45:                                               ; preds = %36
  %.not23 = icmp eq ptr %1, null
  br i1 %.not23, label %55, label %46

46:                                               ; preds = %45
  %47 = tail call i64 @H5I_nmembers(i32 noundef %0) #3
  %48 = icmp slt i64 %47, 0
  br i1 %48, label %49, label %53

49:                                               ; preds = %46
  %50 = load i64, ptr @H5E_ID_g, align 8
  %51 = load i64, ptr @H5E_CANTCOUNT_g, align 8
  %52 = tail call i32 (ptr, ptr, i32, i64, i64, ptr, ...) @H5E_printf_stack(ptr noundef nonnull @.str, ptr noundef nonnull @__func__.H5Inmembers, i32 noundef 218, i64 noundef %50, i64 noundef %51, ptr noundef nonnull @.str.9) #3
  br label %.thread39

53:                                               ; preds = %46
  store i64 %47, ptr %1, align 8
  br label %55

.thread39:                                        ; preds = %49, %41, %32, %25
  %54 = tail call i32 @H5CX_pop(i1 noundef zeroext true) #3
  br label %.thread33

55:                                               ; preds = %45, %53
  %56 = tail call i32 @H5CX_pop(i1 noundef zeroext true) #3
  br label %58

.thread33:                                        ; preds = %18, %11, %.thread39
  %57 = tail call i32 @H5E_dump_api_stack() #3
  br label %58

58:                                               ; preds = %55, %.thread33
  %.03036 = phi i32 [ -1, %.thread33 ], [ 0, %55 ]
  ret i32 %.03036
}